; ModuleID = 'source-C-CXX/61/2414.cpp'
source_filename = "source-C-CXX/61/2414.cpp"
target datalayout = "e-m:e-p270:32:32-p271:32:32-p272:64:64-i64:64-f80:128-n8:16:32:64-S128"
target triple = "x86_64-pc-linux-gnu"

%"class.std::ios_base::Init" = type { i8 }
%"class.std::basic_istream" = type { i32 (...)**, i64, %"class.std::basic_ios" }
%"class.std::basic_ios" = type { %"class.std::ios_base", %"class.std::basic_ostream"*, i8, i8, %"class.std::basic_streambuf"*, %"class.std::ctype"*, %"class.std::num_put"*, %"class.std::num_get"* }
%"class.std::ios_base" = type { i32 (...)**, i64, i64, i32, i32, i32, %"struct.std::ios_base::_Callback_list"*, %"struct.std::ios_base::_Words", [8 x %"struct.std::ios_base::_Words"], i32, %"struct.std::ios_base::_Words"*, %"class.std::locale" }
%"struct.std::ios_base::_Callback_list" = type { %"struct.std::ios_base::_Callback_list"*, void (i32, %"class.std::ios_base"*, i32)*, i32, i32 }
%"struct.std::ios_base::_Words" = type { i8*, i64 }
%"class.std::locale" = type { %"class.std::locale::_Impl"* }
%"class.std::locale::_Impl" = type { i32, %"class.std::locale::facet"**, i64, %"class.std::locale::facet"**, i8** }
%"class.std::locale::facet" = type <{ i32 (...)**, i32, [4 x i8] }>
%"class.std::basic_ostream" = type { i32 (...)**, %"class.std::basic_ios" }
%"class.std::basic_streambuf" = type { i32 (...)**, i8*, i8*, i8*, i8*, i8*, i8*, %"class.std::locale" }
%"class.std::ctype" = type <{ %"class.std::locale::facet.base", [4 x i8], %struct.__locale_struct*, i8, [7 x i8], i32*, i32*, i16*, i8, [256 x i8], [256 x i8], i8, [6 x i8] }>
%"class.std::locale::facet.base" = type <{ i32 (...)**, i32 }>
%struct.__locale_struct = type { [13 x %struct.__locale_data*], i16*, i32*, i32*, [13 x i8*] }
%struct.__locale_data = type opaque
%"class.std::num_put" = type { %"class.std::locale::facet.base", [4 x i8] }
%"class.std::num_get" = type { %"class.std::locale::facet.base", [4 x i8] }

@_ZStL8__ioinit = internal global %"class.std::ios_base::Init" zeroinitializer, align 1
@__dso_handle = external hidden global i8
@_ZSt3cin = external global %"class.std::basic_istream", align 8
@_ZSt4cout = external global %"class.std::basic_ostream", align 8
@llvm.global_ctors = appending global [1 x { i32, void ()*, i8* }] [{ i32, void ()*, i8* } { i32 65535, void ()* @_GLOBAL__sub_I_2414.cpp, i8* null }]

declare void @_ZNSt8ios_base4InitC1Ev(%"class.std::ios_base::Init"* nonnull align 1 dereferenceable(1)) unnamed_addr #0

; Function Attrs: nounwind
declare void @_ZNSt8ios_base4InitD1Ev(%"class.std::ios_base::Init"* nonnull align 1 dereferenceable(1)) unnamed_addr #1

; Function Attrs: nofree nounwind
declare i32 @__cxa_atexit(void (i8*)*, i8*, i8*) local_unnamed_addr #2

; Function Attrs: mustprogress norecurse sspstrong uwtable
define dso_local i32 @main() local_unnamed_addr #3 {
  %1 = alloca i8, align 1
  %2 = alloca [1000 x i8], align 16
  %3 = getelementptr inbounds [1000 x i8], [1000 x i8]* %2, i64 0, i64 0
  call void @llvm.lifetime.start.p0i8(i64 1000, i8* nonnull %3) #7
  %4 = call nonnull align 8 dereferenceable(16) %"class.std::basic_istream"* @_ZNSi7getlineEPclc(%"class.std::basic_istream"* nonnull align 8 dereferenceable(16) @_ZSt3cin, i8* nonnull %3, i64 999, i8 signext 10)
  %5 = call i64 @strlen(i8* noundef nonnull %3) #8
  %6 = trunc i64 %5 to i32
  %7 = add i32 %6, -2
  %8 = icmp slt i32 %7, 0
  br i1 %8, label %13, label %9

9:                                                ; preds = %0
  %10 = shl i64 %5, 32
  %11 = add i64 %10, -4294967296
  %12 = ashr exact i64 %11, 32
  br label %21

13:                                               ; preds = %134, %0
  %14 = phi i32 [ 0, %0 ], [ %135, %134 ]
  %15 = xor i32 %14, -1
  %16 = add i32 %15, %6
  %17 = icmp slt i32 %16, 0
  br i1 %17, label %139, label %18

18:                                               ; preds = %13
  %19 = sub i32 %6, %14
  %20 = zext i32 %19 to i64
  br label %140

21:                                               ; preds = %9, %134
  %22 = phi i32 [ %137, %134 ], [ 0, %9 ]
  %23 = phi i32 [ %135, %134 ], [ 0, %9 ]
  %24 = sext i32 %22 to i64
  %25 = getelementptr inbounds [1000 x i8], [1000 x i8]* %2, i64 0, i64 %24
  %26 = load i8, i8* %25, align 1, !tbaa !5
  %27 = icmp eq i8 %26, 32
  br i1 %27, label %28, label %134

28:                                               ; preds = %21
  %29 = add nsw i32 %22, 1
  %30 = sext i32 %29 to i64
  %31 = getelementptr inbounds [1000 x i8], [1000 x i8]* %2, i64 0, i64 %30
  %32 = load i8, i8* %31, align 1, !tbaa !5
  %33 = icmp eq i8 %32, 32
  br i1 %33, label %34, label %134

34:                                               ; preds = %28
  %35 = icmp sgt i32 %22, %7
  br i1 %35, label %124, label %36

36:                                               ; preds = %34
  %37 = sub nsw i64 %12, %24
  %38 = icmp ult i64 %37, 8
  br i1 %38, label %122, label %39

39:                                               ; preds = %36
  %40 = icmp ult i64 %37, 32
  br i1 %40, label %103, label %41

41:                                               ; preds = %39
  %42 = and i64 %37, -32
  %43 = add nsw i64 %42, -32
  %44 = lshr exact i64 %43, 5
  %45 = add nuw nsw i64 %44, 1
  %46 = and i64 %45, 1
  %47 = icmp eq i64 %43, 0
  br i1 %47, label %81, label %48

48:                                               ; preds = %41
  %49 = and i64 %45, 1152921504606846974
  br label %50

50:                                               ; preds = %50, %48
  %51 = phi i64 [ 0, %48 ], [ %78, %50 ]
  %52 = phi i64 [ %49, %48 ], [ %79, %50 ]
  %53 = add i64 %51, %24
  %54 = add nsw i64 %53, 1
  %55 = getelementptr inbounds [1000 x i8], [1000 x i8]* %2, i64 0, i64 %54
  %56 = bitcast i8* %55 to <16 x i8>*
  %57 = load <16 x i8>, <16 x i8>* %56, align 1, !tbaa !5
  %58 = getelementptr inbounds i8, i8* %55, i64 16
  %59 = bitcast i8* %58 to <16 x i8>*
  %60 = load <16 x i8>, <16 x i8>* %59, align 1, !tbaa !5
  %61 = getelementptr inbounds [1000 x i8], [1000 x i8]* %2, i64 0, i64 %53
  %62 = bitcast i8* %61 to <16 x i8>*
  store <16 x i8> %57, <16 x i8>* %62, align 1, !tbaa !5
  %63 = getelementptr inbounds i8, i8* %61, i64 16
  %64 = bitcast i8* %63 to <16 x i8>*
  store <16 x i8> %60, <16 x i8>* %64, align 1, !tbaa !5
  %65 = or i64 %51, 32
  %66 = add i64 %65, %24
  %67 = add nsw i64 %66, 1
  %68 = getelementptr inbounds [1000 x i8], [1000 x i8]* %2, i64 0, i64 %67
  %69 = bitcast i8* %68 to <16 x i8>*
  %70 = load <16 x i8>, <16 x i8>* %69, align 1, !tbaa !5
  %71 = getelementptr inbounds i8, i8* %68, i64 16
  %72 = bitcast i8* %71 to <16 x i8>*
  %73 = load <16 x i8>, <16 x i8>* %72, align 1, !tbaa !5
  %74 = getelementptr inbounds [1000 x i8], [1000 x i8]* %2, i64 0, i64 %66
  %75 = bitcast i8* %74 to <16 x i8>*
  store <16 x i8> %70, <16 x i8>* %75, align 1, !tbaa !5
  %76 = getelementptr inbounds i8, i8* %74, i64 16
  %77 = bitcast i8* %76 to <16 x i8>*
  store <16 x i8> %73, <16 x i8>* %77, align 1, !tbaa !5
  %78 = add nuw i64 %51, 64
  %79 = add i64 %52, -2
  %80 = icmp eq i64 %79, 0
  br i1 %80, label %81, label %50, !llvm.loop !8

81:                                               ; preds = %50, %41
  %82 = phi i64 [ 0, %41 ], [ %78, %50 ]
  %83 = icmp eq i64 %46, 0
  br i1 %83, label %97, label %84

84:                                               ; preds = %81
  %85 = add i64 %82, %24
  %86 = add nsw i64 %85, 1
  %87 = getelementptr inbounds [1000 x i8], [1000 x i8]* %2, i64 0, i64 %86
  %88 = bitcast i8* %87 to <16 x i8>*
  %89 = load <16 x i8>, <16 x i8>* %88, align 1, !tbaa !5
  %90 = getelementptr inbounds i8, i8* %87, i64 16
  %91 = bitcast i8* %90 to <16 x i8>*
  %92 = load <16 x i8>, <16 x i8>* %91, align 1, !tbaa !5
  %93 = getelementptr inbounds [1000 x i8], [1000 x i8]* %2, i64 0, i64 %85
  %94 = bitcast i8* %93 to <16 x i8>*
  store <16 x i8> %89, <16 x i8>* %94, align 1, !tbaa !5
  %95 = getelementptr inbounds i8, i8* %93, i64 16
  %96 = bitcast i8* %95 to <16 x i8>*
  store <16 x i8> %92, <16 x i8>* %96, align 1, !tbaa !5
  br label %97

97:                                               ; preds = %81, %84
  %98 = icmp eq i64 %37, %42
  br i1 %98, label %124, label %99

99:                                               ; preds = %97
  %100 = add nsw i64 %42, %24
  %101 = and i64 %37, 24
  %102 = icmp eq i64 %101, 0
  br i1 %102, label %122, label %103

103:                                              ; preds = %39, %99
  %104 = phi i64 [ %42, %99 ], [ 0, %39 ]
  %105 = sext i32 %22 to i64
  %106 = sub nsw i64 %12, %105
  %107 = and i64 %106, -8
  %108 = add nsw i64 %107, %24
  br label %109

109:                                              ; preds = %109, %103
  %110 = phi i64 [ %104, %103 ], [ %118, %109 ]
  %111 = add i64 %110, %24
  %112 = add nsw i64 %111, 1
  %113 = getelementptr inbounds [1000 x i8], [1000 x i8]* %2, i64 0, i64 %112
  %114 = bitcast i8* %113 to <8 x i8>*
  %115 = load <8 x i8>, <8 x i8>* %114, align 1, !tbaa !5
  %116 = getelementptr inbounds [1000 x i8], [1000 x i8]* %2, i64 0, i64 %111
  %117 = bitcast i8* %116 to <8 x i8>*
  store <8 x i8> %115, <8 x i8>* %117, align 1, !tbaa !5
  %118 = add nuw i64 %110, 8
  %119 = icmp eq i64 %118, %107
  br i1 %119, label %120, label %109, !llvm.loop !11

120:                                              ; preds = %109
  %121 = icmp eq i64 %106, %107
  br i1 %121, label %124, label %122

122:                                              ; preds = %36, %99, %120
  %123 = phi i64 [ %24, %36 ], [ %100, %99 ], [ %108, %120 ]
  br label %127

124:                                              ; preds = %127, %97, %120, %34
  %125 = add nsw i32 %23, 1
  %126 = add nsw i32 %22, -1
  br label %134

127:                                              ; preds = %122, %127
  %128 = phi i64 [ %129, %127 ], [ %123, %122 ]
  %129 = add nsw i64 %128, 1
  %130 = getelementptr inbounds [1000 x i8], [1000 x i8]* %2, i64 0, i64 %129
  %131 = load i8, i8* %130, align 1, !tbaa !5
  %132 = getelementptr inbounds [1000 x i8], [1000 x i8]* %2, i64 0, i64 %128
  store i8 %131, i8* %132, align 1, !tbaa !5
  %133 = icmp eq i64 %129, %12
  br i1 %133, label %124, label %127, !llvm.loop !12

134:                                              ; preds = %124, %28, %21
  %135 = phi i32 [ %125, %124 ], [ %23, %28 ], [ %23, %21 ]
  %136 = phi i32 [ %126, %124 ], [ %22, %28 ], [ %22, %21 ]
  %137 = add nsw i32 %136, 1
  %138 = icmp slt i32 %136, %7
  br i1 %138, label %21, label %13, !llvm.loop !14

139:                                              ; preds = %140, %13
  call void @llvm.lifetime.end.p0i8(i64 1000, i8* nonnull %3) #7
  ret i32 0

140:                                              ; preds = %18, %140
  %141 = phi i64 [ 0, %18 ], [ %145, %140 ]
  %142 = getelementptr inbounds [1000 x i8], [1000 x i8]* %2, i64 0, i64 %141
  %143 = load i8, i8* %142, align 1, !tbaa !5
  call void @llvm.lifetime.start.p0i8(i64 1, i8* nonnull %1)
  store i8 %143, i8* %1, align 1, !tbaa !5
  %144 = call nonnull align 8 dereferenceable(8) %"class.std::basic_ostream"* @_ZSt16__ostream_insertIcSt11char_traitsIcEERSt13basic_ostreamIT_T0_ES6_PKS3_l(%"class.std::basic_ostream"* nonnull align 8 dereferenceable(8) @_ZSt4cout, i8* nonnull %1, i64 1)
  call void @llvm.lifetime.end.p0i8(i64 1, i8* nonnull %1)
  %145 = add nuw nsw i64 %141, 1
  %146 = icmp eq i64 %145, %20
  br i1 %146, label %139, label %140, !llvm.loop !15
}

; Function Attrs: argmemonly mustprogress nofree nosync nounwind willreturn
declare void @llvm.lifetime.start.p0i8(i64 immarg, i8* nocapture) #4

declare nonnull align 8 dereferenceable(16) %"class.std::basic_istream"* @_ZNSi7getlineEPclc(%"class.std::basic_istream"* nonnull align 8 dereferenceable(16), i8*, i64, i8 signext) local_unnamed_addr #0

; Function Attrs: argmemonly mustprogress nofree nounwind readonly willreturn
declare i64 @strlen(i8* nocapture) local_unnamed_addr #5

; Function Attrs: argmemonly mustprogress nofree nosync nounwind willreturn
declare void @llvm.lifetime.end.p0i8(i64 immarg, i8* nocapture) #4

declare nonnull align 8 dereferenceable(8) %"class.std::basic_ostream"* @_ZSt16__ostream_insertIcSt11char_traitsIcEERSt13basic_ostreamIT_T0_ES6_PKS3_l(%"class.std::basic_ostream"* nonnull align 8 dereferenceable(8), i8*, i64) local_unnamed_addr #0

; Function Attrs: sspstrong uwtable
define internal void @_GLOBAL__sub_I_2414.cpp() #6 section ".text.startup" {
  tail call void @_ZNSt8ios_base4InitC1Ev(%"class.std::ios_base::Init"* nonnull align 1 dereferenceable(1) @_ZStL8__ioinit)
  %1 = tail call i32 @__cxa_atexit(void (i8*)* bitcast (void (%"class.std::ios_base::Init"*)* @_ZNSt8ios_base4InitD1Ev to void (i8*)*), i8* getelementptr inbounds (%"class.std::ios_base::Init", %"class.std::ios_base::Init"* @_ZStL8__ioinit, i64 0, i32 0), i8* nonnull @__dso_handle) #7
  ret void
}


!llvm.module.flags = !{!0, !1, !2, !3}
!llvm.ident = !{!4}

!0 = !{i32 1, !"wchar_size", i32 4}
!1 = !{i32 7, !"PIC Level", i32 2}
!2 = !{i32 7, !"PIE Level", i32 2}
!3 = !{i32 7, !"uwtable", i32 1}
!4 = !{!"clang version 13.0.0"}
!5 = !{!6, !6, i64 0}
!6 = !{!"omnipotent char", !7, i64 0}
!7 = !{!"Simple C++ TBAA"}
!8 = distinct !{!8, !9, !10}
!9 = !{!"llvm.loop.mustprogress"}
!10 = !{!"llvm.loop.isvectorized", i32 1}
!11 = distinct !{!11, !9, !10}
!12 = distinct !{!12, !9, !13, !10}
!13 = !{!"llvm.loop.unroll.runtime.disable"}
!14 = distinct !{!14, !9}
!15 = distinct !{!15, !9}
